; Function Attrs: mustprogress uwtable
define dso_local noundef ptr @_ZN8Constant16make_random_uptoEj(i32 noundef %0) local_unnamed_addr #3 align 2 personality ptr @__gxx_personality_v0 {
  %2 = alloca %"class.std::__cxx11::basic_ostringstream", align 8
  %3 = alloca %"class.std::__cxx11::basic_string", align 8
  call void @_ZNSt7__cxx1119basic_ostringstreamIcSt11char_traitsIcESaIcEEC1Ev(ptr noundef nonnull align 8 dereferenceable(112) %2)
  %4 = invoke noundef i32 @_Z8rnd_uptojPK6FilterPKNSt7__cxx1112basic_stringIcSt11char_traitsIcESaIcEEE(i32 noundef %0, ptr noundef null, ptr noundef null)
          to label %5 unwind label %9

5:                                                ; preds = %1
  %6 = invoke noundef nonnull align 8 dereferenceable(8) ptr @_ZNSolsEj(ptr noundef nonnull align 8 dereferenceable(8) %2, i32 noundef %4)
          to label %7 unwind label %9

7:                                                ; preds = %5
  %8 = load i32, ptr @_ZN5Error8r_error_E, align 4
  %.not = icmp eq i32 %8, 0
  br i1 %.not, label %11, label %26

9:                                                ; preds = %11, %5, %1
  %10 = landingpad { ptr, i32 }
          cleanup
  br label %27

11:                                               ; preds = %7
  %12 = invoke noalias noundef nonnull dereferenceable(64) ptr @_Znwm(i64 noundef 64) #18
          to label %13 unwind label %9

13:                                               ; preds = %11
  %14 = invoke noundef nonnull align 8 dereferenceable(136) ptr @_ZN4Type15get_simple_typeE11eSimpleType(i32 noundef 7)
          to label %15 unwind label %21

15:                                               ; preds = %13
  invoke void @_ZNKSt7__cxx1119basic_ostringstreamIcSt11char_traitsIcESaIcEE3strEv(ptr dead_on_unwind nonnull writable sret(%"class.std::__cxx11::basic_string") align 8 %3, ptr noundef nonnull align 8 dereferenceable(112) %2)
          to label %16 unwind label %21

16:                                               ; preds = %15
  invoke void @_ZN10ExpressionC2E9eTermType(ptr noundef nonnull align 8 dereferenceable(24) %12, i32 noundef 0)
          to label %.noexc unwind label %23

.noexc:                                           ; preds = %16
  store ptr getelementptr inbounds ({ [24 x ptr] }, ptr @_ZTV8Constant, i64 0, i32 0, i64 2), ptr %12, align 8
  %17 = getelementptr inbounds i8, ptr %12, i64 24
  store ptr %14, ptr %17, align 8
  %18 = getelementptr inbounds i8, ptr %12, i64 32
  invoke void @_ZNSt7__cxx1112basic_stringIcSt11char_traitsIcESaIcEEC1ERKS4_(ptr noundef nonnull align 8 dereferenceable(32) %18, ptr noundef nonnull align 8 dereferenceable(32) %3)
          to label %_ZN8ConstantC2EPK4TypeRKNSt7__cxx1112basic_stringIcSt11char_traitsIcESaIcEEE.exit unwind label %19

19:                                               ; preds = %.noexc
  %20 = landingpad { ptr, i32 }
          cleanup
  call void @_ZN10ExpressionD2Ev(ptr noundef nonnull align 8 dereferenceable(24) %12) #16
  br label %.body

_ZN8ConstantC2EPK4TypeRKNSt7__cxx1112basic_stringIcSt11char_traitsIcESaIcEEE.exit: ; preds = %.noexc
  call void @_ZNSt7__cxx1112basic_stringIcSt11char_traitsIcESaIcEED1Ev(ptr noundef nonnull align 8 dereferenceable(32) %3) #16
  br label %26

21:                                               ; preds = %15, %13
  %22 = landingpad { ptr, i32 }
          cleanup
  br label %25

23:                                               ; preds = %16
  %24 = landingpad { ptr, i32 }
          cleanup
  br label %.body

.body:                                            ; preds = %19, %23
  %eh.lpad-body = phi { ptr, i32 } [ %24, %23 ], [ %20, %19 ]
  call void @_ZNSt7__cxx1112basic_stringIcSt11char_traitsIcESaIcEED1Ev(ptr noundef nonnull align 8 dereferenceable(32) %3) #16
  br label %25

25:                                               ; preds = %21, %.body
  %.pn = phi { ptr, i32 } [ %eh.lpad-body, %.body ], [ %22, %21 ]
  call void @_ZdlPv(ptr noundef nonnull %12) #17
  br label %27

26:                                               ; preds = %7, %_ZN8ConstantC2EPK4TypeRKNSt7__cxx1112basic_stringIcSt11char_traitsIcESaIcEEE.exit
  %.06 = phi ptr [ %12, %_ZN8ConstantC2EPK4TypeRKNSt7__cxx1112basic_stringIcSt11char_traitsIcESaIcEEE.exit ], [ null, %7 ]
  call void @_ZNSt7__cxx1119basic_ostringstreamIcSt11char_traitsIcESaIcEED1Ev(ptr noundef nonnull align 8 dereferenceable(112) %2) #16
  ret ptr %.06

27:                                               ; preds = %25, %9
  %.pn.pn = phi { ptr, i32 } [ %.pn, %25 ], [ %10, %9 ]
  call void @_ZNSt7__cxx1119basic_ostringstreamIcSt11char_traitsIcESaIcEED1Ev(ptr noundef nonnull align 8 dereferenceable(112) %2) #16
  resume { ptr, i32 } %.pn.pn
}